target datalayout = "e-m:e-p270:32:32-p271:32:32-p272:64:64-i64:64-i128:128-f80:128-n8:16:32:64-S128"
target triple = "x86_64-pc-linux-gnu"

; Function Attrs: mustprogress nounwind uwtable
define linkonce_odr noundef nonnull align 4 dereferenceable(4) ptr @_ZSt3minIiERKT_S2_S2_(ptr noundef nonnull align 4 dereferenceable(4) %0, ptr noundef nonnull align 4 dereferenceable(4) %1) #5 comdat {
  %3 = alloca ptr, align 8
  %4 = alloca ptr, align 8
  %5 = alloca ptr, align 8
  store ptr %0, ptr %4, align 8
  store ptr %1, ptr %5, align 8
  %6 = load ptr, ptr %5, align 8
  %7 = load i32, ptr %6, align 4
  %8 = load ptr, ptr %4, align 8
  %9 = load i32, ptr %8, align 4
  %10 = icmp slt i32 %7, %9
  br i1 %10, label %11, label %13

11:                                               ; preds = %2
  %12 = load ptr, ptr %5, align 8
  store ptr %12, ptr %3, align 8
  br label %15

13:                                               ; preds = %2
  %14 = load ptr, ptr %4, align 8
  store ptr %14, ptr %3, align 8
  br label %15

15:                                               ; preds = %13, %11
  %16 = load ptr, ptr %3, align 8
  ret ptr %16
}

; Function Attrs: mustprogress nounwind uwtable
define linkonce_odr noundef nonnull align 4 dereferenceable(4) ptr @_ZSt3maxIiERKT_S2_S2_(ptr noundef nonnull align 4 dereferenceable(4) %0, ptr noundef nonnull align 4 dereferenceable(4) %1) #5 comdat {
  %3 = alloca ptr, align 8
  %4 = alloca ptr, align 8
  %5 = alloca ptr, align 8
  store ptr %0, ptr %4, align 8
  store ptr %1, ptr %5, align 8
  %6 = load ptr, ptr %4, align 8
  %7 = load i32, ptr %6, align 4
  %8 = load ptr, ptr %5, align 8
  %9 = load i32, ptr %8, align 4
  %10 = icmp slt i32 %7, %9
  br i1 %10, label %11, label %13

11:                                               ; preds = %2
  %12 = load ptr, ptr %5, align 8
  store ptr %12, ptr %3, align 8
  br label %15

13:                                               ; preds = %2
  %14 = load ptr, ptr %4, align 8
  store ptr %14, ptr %3, align 8
  br label %15

15:                                               ; preds = %13, %11
  %16 = load ptr, ptr %3, align 8
  ret ptr %16
}

; Function Attrs: mustprogress nounwind uwtable
define linkonce_odr noundef nofpclass(nan inf) float @_ZSt4sqrtf(float noundef nofpclass(nan inf) %0) #5 comdat {
  %2 = alloca float, align 4
  store float %0, ptr %2, align 4
  %3 = load float, ptr %2, align 4
  %4 = call fast float @llvm.sqrt.f32(float %3)
  ret float %4
}

; Function Attrs: mustprogress uwtable
define internal void @_ZN4ncnnL25get_optimal_tile_mnk_int8EiiiRiS0_S0_i(i32 noundef %0, i32 noundef %1, i32 noundef %2, ptr noundef nonnull align 4 dereferenceable(4) %3, ptr noundef nonnull align 4 dereferenceable(4) %4, ptr noundef nonnull align 4 dereferenceable(4) %5, i32 noundef %6) #0 {
  %8 = alloca i32, align 4
  %9 = alloca i32, align 4
  %10 = alloca i32, align 4
  %11 = alloca ptr, align 8
  %12 = alloca ptr, align 8
  %13 = alloca ptr, align 8
  %14 = alloca i32, align 4
  %15 = alloca i64, align 8
  %16 = alloca i32, align 4
  %17 = alloca i32, align 4
  %18 = alloca i32, align 4
  %19 = alloca i32, align 4
  %20 = alloca i32, align 4
  %21 = alloca i32, align 4
  %22 = alloca i32, align 4
  %23 = alloca i32, align 4
  %24 = alloca i32, align 4
  %25 = alloca i32, align 4
  %26 = alloca i32, align 4
  %27 = alloca i32, align 4
  %28 = alloca i32, align 4
  %29 = alloca i32, align 4
  %30 = alloca i32, align 4
  %31 = alloca i32, align 4
  %32 = alloca i32, align 4
  %33 = alloca i32, align 4
  %34 = alloca i32, align 4
  store i32 %0, ptr %8, align 4
  store i32 %1, ptr %9, align 4
  store i32 %2, ptr %10, align 4
  store ptr %3, ptr %11, align 8
  store ptr %4, ptr %12, align 8
  store ptr %5, ptr %13, align 8
  store i32 %6, ptr %14, align 4
  %35 = call noundef i32 @_ZN4ncnn25get_cpu_level2_cache_sizeEv()
  %36 = sext i32 %35 to i64
  %37 = udiv i64 %36, 2
  %38 = trunc i64 %37 to i32
  %39 = sext i32 %38 to i64
  store i64 %39, ptr %15, align 8
  %40 = load i32, ptr %14, align 4
  %41 = icmp eq i32 %40, 0
  br i1 %41, label %42, label %44

42:                                               ; preds = %7
  %43 = call noundef i32 @_ZN4ncnn26get_physical_big_cpu_countEv()
  store i32 %43, ptr %14, align 4
  br label %44

44:                                               ; preds = %42, %7
  %45 = load i64, ptr %15, align 8
  %46 = uitofp i64 %45 to float
  %47 = fdiv fast float %46, 3.000000e+00
  %48 = call fast noundef nofpclass(nan inf) float @_ZSt4sqrtf(float noundef nofpclass(nan inf) %47)
  %49 = fptosi float %48 to i32
  store i32 %49, ptr %16, align 4
  store i32 4, ptr %17, align 4
  %50 = load i32, ptr %16, align 4
  %51 = sdiv i32 %50, 4
  %52 = mul nsw i32 %51, 4
  store i32 %52, ptr %18, align 4
  %53 = call noundef nonnull align 4 dereferenceable(4) ptr @_ZSt3maxIiERKT_S2_S2_(ptr noundef nonnull align 4 dereferenceable(4) %17, ptr noundef nonnull align 4 dereferenceable(4) %18)
  %54 = load i32, ptr %53, align 4
  %55 = load ptr, ptr %11, align 8
  store i32 %54, ptr %55, align 4
  %56 = call noundef i32 @_ZN4ncnn22get_physical_cpu_countEv()
  store i32 %56, ptr %19, align 4
  %57 = call noundef nonnull align 4 dereferenceable(4) ptr @_ZSt3minIiERKT_S2_S2_(ptr noundef nonnull align 4 dereferenceable(4) %14, ptr noundef nonnull align 4 dereferenceable(4) %19)
  %58 = load i32, ptr %57, align 4
  %59 = load ptr, ptr %11, align 8
  %60 = load i32, ptr %59, align 4
  %61 = mul nsw i32 %60, %58
  store i32 %61, ptr %59, align 4
  %62 = load i32, ptr %8, align 4
  %63 = load ptr, ptr %11, align 8
  %64 = load i32, ptr %63, align 4
  %65 = add nsw i32 %62, %64
  %66 = sub nsw i32 %65, 1
  %67 = load ptr, ptr %11, align 8
  %68 = load i32, ptr %67, align 4
  %69 = sdiv i32 %66, %68
  store i32 %69, ptr %20, align 4
  %70 = load ptr, ptr %11, align 8
  %71 = load i32, ptr %8, align 4
  %72 = load i32, ptr %20, align 4
  %73 = add nsw i32 %71, %72
  %74 = sub nsw i32 %73, 1
  %75 = load i32, ptr %20, align 4
  %76 = sdiv i32 %74, %75
  %77 = add nsw i32 %76, 3
  %78 = sdiv i32 %77, 4
  %79 = mul nsw i32 %78, 4
  store i32 %79, ptr %21, align 4
  %80 = call noundef nonnull align 4 dereferenceable(4) ptr @_ZSt3minIiERKT_S2_S2_(ptr noundef nonnull align 4 dereferenceable(4) %70, ptr noundef nonnull align 4 dereferenceable(4) %21)
  %81 = load i32, ptr %80, align 4
  %82 = load ptr, ptr %11, align 8
  store i32 %81, ptr %82, align 4
  %83 = load i32, ptr %14, align 4
  %84 = icmp sgt i32 %83, 1
  br i1 %84, label %85, label %99

85:                                               ; preds = %44
  %86 = load ptr, ptr %11, align 8
  store i32 1, ptr %23, align 4
  %87 = load ptr, ptr %11, align 8
  %88 = load i32, ptr %87, align 4
  %89 = load i32, ptr %14, align 4
  %90 = sdiv i32 %88, %89
  store i32 %90, ptr %24, align 4
  %91 = call noundef nonnull align 4 dereferenceable(4) ptr @_ZSt3maxIiERKT_S2_S2_(ptr noundef nonnull align 4 dereferenceable(4) %23, ptr noundef nonnull align 4 dereferenceable(4) %24)
  %92 = load i32, ptr %91, align 4
  %93 = add nsw i32 %92, 3
  %94 = sdiv i32 %93, 4
  %95 = mul nsw i32 %94, 4
  store i32 %95, ptr %22, align 4
  %96 = call noundef nonnull align 4 dereferenceable(4) ptr @_ZSt3minIiERKT_S2_S2_(ptr noundef nonnull align 4 dereferenceable(4) %86, ptr noundef nonnull align 4 dereferenceable(4) %22)
  %97 = load i32, ptr %96, align 4
  %98 = load ptr, ptr %11, align 8
  store i32 %97, ptr %98, align 4
  br label %99

99:                                               ; preds = %85, %44
  %100 = load i64, ptr %15, align 8
  %101 = uitofp i64 %100 to float
  %102 = call fast noundef nofpclass(nan inf) float @_ZSt4sqrtf(float noundef nofpclass(nan inf) %101)
  %103 = load ptr, ptr %11, align 8
  %104 = load i32, ptr %103, align 4
  %105 = sitofp i32 %104 to float
  %106 = fsub fast float %102, %105
  %107 = fptosi float %106 to i32
  store i32 %107, ptr %25, align 4
  store i32 4, ptr %26, align 4
  %108 = load i32, ptr %25, align 4
  %109 = sdiv i32 %108, 4
  %110 = mul nsw i32 %109, 4
  store i32 %110, ptr %27, align 4
  %111 = call noundef nonnull align 4 dereferenceable(4) ptr @_ZSt3maxIiERKT_S2_S2_(ptr noundef nonnull align 4 dereferenceable(4) %26, ptr noundef nonnull align 4 dereferenceable(4) %27)
  %112 = load i32, ptr %111, align 4
  %113 = load ptr, ptr %13, align 8
  store i32 %112, ptr %113, align 4
  %114 = load i32, ptr %10, align 4
  %115 = load ptr, ptr %13, align 8
  %116 = load i32, ptr %115, align 4
  %117 = add nsw i32 %114, %116
  %118 = sub nsw i32 %117, 1
  %119 = load ptr, ptr %13, align 8
  %120 = load i32, ptr %119, align 4
  %121 = sdiv i32 %118, %120
  store i32 %121, ptr %28, align 4
  %122 = load ptr, ptr %13, align 8
  %123 = load i32, ptr %10, align 4
  %124 = load i32, ptr %28, align 4
  %125 = add nsw i32 %123, %124
  %126 = sub nsw i32 %125, 1
  %127 = load i32, ptr %28, align 4
  %128 = sdiv i32 %126, %127
  %129 = add nsw i32 %128, 3
  %130 = sdiv i32 %129, 4
  %131 = mul nsw i32 %130, 4
  store i32 %131, ptr %29, align 4
  %132 = call noundef nonnull align 4 dereferenceable(4) ptr @_ZSt3minIiERKT_S2_S2_(ptr noundef nonnull align 4 dereferenceable(4) %122, ptr noundef nonnull align 4 dereferenceable(4) %29)
  %133 = load i32, ptr %132, align 4
  %134 = load ptr, ptr %13, align 8
  store i32 %133, ptr %134, align 4
  %135 = load i32, ptr %9, align 4
  %136 = icmp sgt i32 %135, 0
  br i1 %136, label %137, label %182

137:                                              ; preds = %99
  %138 = load i64, ptr %15, align 8
  %139 = load ptr, ptr %11, align 8
  %140 = load i32, ptr %139, align 4
  %141 = load ptr, ptr %13, align 8
  %142 = load i32, ptr %141, align 4
  %143 = mul nsw i32 %140, %142
  %144 = sext i32 %143 to i64
  %145 = sub i64 %138, %144
  %146 = load ptr, ptr %11, align 8
  %147 = load i32, ptr %146, align 4
  %148 = mul nsw i32 %147, 2
  %149 = load ptr, ptr %13, align 8
  %150 = load i32, ptr %149, align 4
  %151 = add nsw i32 %148, %150
  %152 = sext i32 %151 to i64
  %153 = udiv i64 %145, %152
  %154 = trunc i64 %153 to i32
  store i32 %154, ptr %30, align 4
  store i32 4, ptr %31, align 4
  %155 = load i32, ptr %30, align 4
  %156 = sdiv i32 %155, 4
  %157 = mul nsw i32 %156, 4
  store i32 %157, ptr %32, align 4
  %158 = call noundef nonnull align 4 dereferenceable(4) ptr @_ZSt3maxIiERKT_S2_S2_(ptr noundef nonnull align 4 dereferenceable(4) %31, ptr noundef nonnull align 4 dereferenceable(4) %32)
  %159 = load i32, ptr %158, align 4
  %160 = load ptr, ptr %12, align 8
  store i32 %159, ptr %160, align 4
  %161 = load i32, ptr %9, align 4
  %162 = load ptr, ptr %12, align 8
  %163 = load i32, ptr %162, align 4
  %164 = add nsw i32 %161, %163
  %165 = sub nsw i32 %164, 1
  %166 = load ptr, ptr %12, align 8
  %167 = load i32, ptr %166, align 4
  %168 = sdiv i32 %165, %167
  store i32 %168, ptr %33, align 4
  %169 = load ptr, ptr %12, align 8
  %170 = load i32, ptr %9, align 4
  %171 = load i32, ptr %33, align 4
  %172 = add nsw i32 %170, %171
  %173 = sub nsw i32 %172, 1
  %174 = load i32, ptr %33, align 4
  %175 = sdiv i32 %173, %174
  %176 = add nsw i32 %175, 3
  %177 = sdiv i32 %176, 4
  %178 = mul nsw i32 %177, 4
  store i32 %178, ptr %34, align 4
  %179 = call noundef nonnull align 4 dereferenceable(4) ptr @_ZSt3minIiERKT_S2_S2_(ptr noundef nonnull align 4 dereferenceable(4) %169, ptr noundef nonnull align 4 dereferenceable(4) %34)
  %180 = load i32, ptr %179, align 4
  %181 = load ptr, ptr %12, align 8
  store i32 %180, ptr %181, align 4
  br label %182

182:                                              ; preds = %137, %99
  ret void
}